; Function Attrs: mustprogress nounwind uwtable
define dso_local void @_ZN4Json12StyledWriterC2Ev(ptr noundef nonnull align 8 dereferenceable(105) %0) unnamed_addr #6 align 2 {
  store ptr getelementptr inbounds ({ [5 x ptr] }, ptr @_ZTVN4Json12StyledWriterE, i64 0, i32 0, i64 2), ptr %0, align 8
  %2 = getelementptr inbounds i8, ptr %0, i64 8
  tail call void @llvm.memset.p0.i64(ptr noundef nonnull align 8 dereferenceable(24) %2, i8 0, i64 24, i1 false)
  %3 = getelementptr inbounds i8, ptr %0, i64 32
  tail call void @_ZNSt7__cxx1112basic_stringIcSt11char_traitsIcESaIcEEC1Ev(ptr noundef nonnull align 8 dereferenceable(32) %3) #19
  %4 = getelementptr inbounds i8, ptr %0, i64 64
  tail call void @_ZNSt7__cxx1112basic_stringIcSt11char_traitsIcESaIcEEC1Ev(ptr noundef nonnull align 8 dereferenceable(32) %4) #19
  %5 = getelementptr inbounds i8, ptr %0, i64 96
  store i32 74, ptr %5, align 8
  %6 = getelementptr inbounds i8, ptr %0, i64 100
  store i32 3, ptr %6, align 4
  %7 = getelementptr inbounds i8, ptr %0, i64 104
  store i8 0, ptr %7, align 8
  ret void
}